; Function Attrs: nounwind uwtable
define dso_local i32 @spawn_req_send_to_srun(ptr noundef readonly captures(none) %0, ptr noundef writeonly captures(none) %1) local_unnamed_addr #0 {
  %3 = alloca ptr, align 8
  call void @llvm.lifetime.start.p0(i64 8, ptr nonnull %3) #10
  store ptr null, ptr %3, align 8
  %4 = tail call ptr @slurm_init_buf(i32 noundef 2048) #10
  tail call void @slurm_pack16(i16 noundef zeroext 2, ptr noundef %4) #10
  tail call void @spawn_req_pack(ptr noundef %0, ptr noundef %4)
  %5 = getelementptr inbounds nuw i8, ptr %4, i64 20
  %6 = load i32, ptr %5, align 4
  %7 = getelementptr inbounds nuw i8, ptr %4, i64 8
  %8 = load ptr, ptr %7, align 8
  %9 = call i32 @tree_msg_to_srun_with_resp(i32 noundef %6, ptr noundef %8, ptr noundef nonnull %3) #10
  call void @slurm_free_buf(ptr noundef nonnull %4) #10
  %10 = icmp eq i32 %9, 0
  br i1 %10, label %11, label %16

11:                                               ; preds = %2
  %12 = load ptr, ptr %3, align 8
  %13 = call i32 @spawn_resp_unpack(ptr noundef %1, ptr noundef %12)
  %14 = load ptr, ptr %3, align 8
  %.not13 = icmp eq ptr %14, null
  br i1 %.not13, label %16, label %15

15:                                               ; preds = %11
  call void @slurm_free_buf(ptr noundef nonnull %14) #10
  br label %16

16:                                               ; preds = %11, %15, %2
  %.0 = phi i32 [ %9, %2 ], [ %13, %15 ], [ %13, %11 ]
  call void @llvm.lifetime.end.p0(i64 8, ptr nonnull %3) #10
  ret i32 %.0
}